; Function Attrs: mustprogress nofree norecurse nosync nounwind willreturn memory(read, inaccessiblemem: none) uwtable
define hidden noundef zeroext i1 @_ZNK4llvh6detail9IEEEFloat21isSignificandAllZerosEv(ptr noundef nonnull readonly align 8 captures(none) dereferenceable(24) %this) local_unnamed_addr #3 align 2 {
entry:
  %0 = load ptr, ptr %this, align 8
  %precision.i.i.i = getelementptr inbounds nuw i8, ptr %0, i64 4
  %1 = load i32, ptr %precision.i.i.i, align 4
  %2 = add i32 %1, -64
  %cmp.i.i = icmp ult i32 %2, -128
  %significand.i.i = getelementptr inbounds nuw i8, ptr %this, i64 8
  %3 = load ptr, ptr %significand.i.i, align 8
  %retval.0.i.i = select i1 %cmp.i.i, ptr %3, ptr %significand.i.i
  %sub.i.i = add i32 %1, 64
  %div1.i.i = lshr i32 %sub.i.i, 6
  %sub = add nsw i32 %div1.i.i, -1
  %cmp7.not = icmp eq i32 %sub, 0
  br i1 %cmp7.not, label %for.end, label %for.body.preheader

for.body.preheader:                               ; preds = %entry
  %wide.trip.count = zext i32 %sub to i64
  br label %for.body

for.cond:                                         ; preds = %for.body
  %indvars.iv.next = add nuw nsw i64 %indvars.iv, 1
  %exitcond.not = icmp eq i64 %indvars.iv.next, %wide.trip.count
  br i1 %exitcond.not, label %for.end, label %for.body, !llvm.loop !7

for.body:                                         ; preds = %for.body.preheader, %for.cond
  %indvars.iv = phi i64 [ 0, %for.body.preheader ], [ %indvars.iv.next, %for.cond ]
  %arrayidx = getelementptr inbounds nuw i64, ptr %retval.0.i.i, i64 %indvars.iv
  %4 = load i64, ptr %arrayidx, align 8
  %tobool.not = icmp eq i64 %4, 0
  br i1 %tobool.not, label %for.cond, label %return

for.end:                                          ; preds = %for.cond, %entry
  %idxprom5.pre-phi = phi i64 [ 0, %entry ], [ %wide.trip.count, %for.cond ]
  %mul = and i32 %sub.i.i, -64
  %reass.sub = sub i32 %mul, %1
  %add = add i32 %reass.sub, 1
  %sh_prom = zext nneg i32 %add to i64
  %shr = lshr i64 -1, %sh_prom
  %arrayidx6 = getelementptr inbounds nuw i64, ptr %retval.0.i.i, i64 %idxprom5.pre-phi
  %5 = load i64, ptr %arrayidx6, align 8
  %and = and i64 %5, %shr
  %tobool7.not = icmp eq i64 %and, 0
  br label %return

return:                                           ; preds = %for.body, %for.end
  %retval.0 = phi i1 [ %tobool7.not, %for.end ], [ false, %for.body ]
  ret i1 %retval.0
}